target datalayout = "e-m:e-p270:32:32-p271:32:32-p272:64:64-i64:64-i128:128-f80:128-n8:16:32:64-S128"
target triple = "x86_64-pc-linux-gnu"

%struct.cli_bc_ctx = type { i8, i16, i32, ptr, ptr, i32, i32, ptr, ptr, ptr, i32, i32, i64, ptr, ptr, ptr, %struct.cli_bc_hooks, %struct.cli_exe_info, [64 x i32], [64 x i32], i32, ptr, ptr, i32, i32, i32, i32, ptr, i32, ptr, ptr, i32, i32, i32, i32, i32, i32, ptr, ptr, ptr, ptr, ptr, ptr, ptr, i32, i32, i32, i32, ptr, ptr, ptr, ptr, ptr, i32, i32, i32, i32, ptr, ptr, ptr, ptr, i32, i32, i32, ptr, i32, ptr, i32, i32, ptr, i32 }
%struct.cli_bc_hooks = type { ptr, ptr, ptr, ptr, ptr }
%struct.cli_exe_info = type { ptr, i32, i32, i16, i32, i32, %struct.cli_hashset, i32, i32, i32, i32, i32, i32, i32, i32, i32, %struct.pe_image_file_hdr, %union.anon, [16 x %struct.pe_image_data_dir] }
%struct.cli_hashset = type { ptr, ptr, ptr, i32, i32, i32, i32 }
%struct.pe_image_file_hdr = type { i32, i16, i16, i32, i32, i32, i16, i16 }
%union.anon = type { %struct.pe_image_optional_hdr64 }
%struct.pe_image_optional_hdr64 = type { i16, i8, i8, i32, i32, i32, i32, i32, i64, i32, i32, i16, i16, i16, i16, i16, i16, i32, i32, i32, i32, i16, i16, i64, i64, i64, i64, i32, i32 }
%struct.pe_image_data_dir = type { i32, i32 }
%struct.cli_ctx_tag = type { ptr, ptr, ptr, ptr, ptr, ptr, ptr, i64, ptr, i32, i32, ptr, i32, i32, ptr, [16 x i8], ptr, ptr, ptr, ptr, ptr, ptr, %struct.timeval, i8, i8 }
%struct.timeval = type { i64, i64 }

@.str.128 = private unnamed_addr constant [64 x i8] c"bytecode api[json_array_get_idx]: invalid json objid requested\0A\00", align 1
@.str.129 = private unnamed_addr constant [64 x i8] c"bytecode api[json_array_get_idx]: assigned array @ %d => ID %d\0A\00", align 1

; Function Attrs: nounwind uwtable
define internal i32 @cli_bcapi_json_objs_init(ptr noundef %0) #0 {
  %2 = alloca i32, align 4
  %3 = alloca ptr, align 8
  %4 = alloca i32, align 4
  %5 = alloca ptr, align 8
  %6 = alloca ptr, align 8
  %7 = alloca ptr, align 8
  store ptr %0, ptr %3, align 8
  %8 = load ptr, ptr %3, align 8
  %9 = getelementptr inbounds %struct.cli_bc_ctx, ptr %8, i32 0, i32 70
  %10 = load i32, ptr %9, align 8
  %11 = add i32 %10, 1
  store i32 %11, ptr %4, align 4
  %12 = load ptr, ptr %3, align 8
  %13 = getelementptr inbounds %struct.cli_bc_ctx, ptr %12, i32 0, i32 69
  %14 = load ptr, ptr %13, align 8
  store ptr %14, ptr %6, align 8
  %15 = load ptr, ptr %3, align 8
  %16 = getelementptr inbounds %struct.cli_bc_ctx, ptr %15, i32 0, i32 30
  %17 = load ptr, ptr %16, align 8
  store ptr %17, ptr %7, align 8
  %18 = load ptr, ptr %6, align 8
  %19 = load i32, ptr %4, align 4
  %20 = zext i32 %19 to i64
  %21 = mul i64 8, %20
  %22 = call ptr @cli_max_realloc(ptr noundef %18, i64 noundef %21)
  store ptr %22, ptr %5, align 8
  %23 = load ptr, ptr %5, align 8
  %24 = icmp ne ptr %23, null
  br i1 %24, label %29, label %25

25:                                               ; preds = %1
  %26 = load ptr, ptr %3, align 8
  %27 = getelementptr inbounds %struct.cli_bc_ctx, ptr %26, i32 0, i32 66
  %28 = load ptr, ptr %27, align 8
  call void @cli_event_error_oom(ptr noundef %28, i32 noundef 0)
  store i32 -1, ptr %2, align 4
  br label %44

29:                                               ; preds = %1
  %30 = load ptr, ptr %5, align 8
  %31 = load ptr, ptr %3, align 8
  %32 = getelementptr inbounds %struct.cli_bc_ctx, ptr %31, i32 0, i32 69
  store ptr %30, ptr %32, align 8
  %33 = load i32, ptr %4, align 4
  %34 = load ptr, ptr %3, align 8
  %35 = getelementptr inbounds %struct.cli_bc_ctx, ptr %34, i32 0, i32 70
  store i32 %33, ptr %35, align 8
  %36 = load ptr, ptr %7, align 8
  %37 = getelementptr inbounds %struct.cli_ctx_tag, ptr %36, i32 0, i32 20
  %38 = load ptr, ptr %37, align 8
  %39 = load ptr, ptr %5, align 8
  %40 = load i32, ptr %4, align 4
  %41 = sub i32 %40, 1
  %42 = zext i32 %41 to i64
  %43 = getelementptr inbounds ptr, ptr %39, i64 %42
  store ptr %38, ptr %43, align 8
  store i32 0, ptr %2, align 4
  br label %44

44:                                               ; preds = %29, %25
  %45 = load i32, ptr %2, align 4
  ret i32 %45
}

; Function Attrs: nounwind uwtable
define i32 @cli_bcapi_json_is_active(ptr noundef %0) #0 {
  %2 = alloca i32, align 4
  %3 = alloca ptr, align 8
  %4 = alloca ptr, align 8
  store ptr %0, ptr %3, align 8
  %5 = load ptr, ptr %3, align 8
  %6 = getelementptr inbounds %struct.cli_bc_ctx, ptr %5, i32 0, i32 30
  %7 = load ptr, ptr %6, align 8
  store ptr %7, ptr %4, align 8
  %8 = load ptr, ptr %4, align 8
  %9 = getelementptr inbounds %struct.cli_ctx_tag, ptr %8, i32 0, i32 20
  %10 = load ptr, ptr %9, align 8
  %11 = icmp ne ptr %10, null
  br i1 %11, label %12, label %13

12:                                               ; preds = %1
  store i32 1, ptr %2, align 4
  br label %14

13:                                               ; preds = %1
  store i32 0, ptr %2, align 4
  br label %14

14:                                               ; preds = %13, %12
  %15 = load i32, ptr %2, align 4
  ret i32 %15
}

; Function Attrs: nounwind uwtable
define i32 @cli_bcapi_json_get_array_idx(ptr noundef %0, i32 noundef %1, i32 noundef %2) #0 {
  %4 = alloca i32, align 4
  %5 = alloca ptr, align 8
  %6 = alloca i32, align 4
  %7 = alloca i32, align 4
  %8 = alloca i32, align 4
  %9 = alloca i32, align 4
  %10 = alloca i32, align 4
  %11 = alloca ptr, align 8
  %12 = alloca ptr, align 8
  %13 = alloca ptr, align 8
  %14 = alloca ptr, align 8
  store ptr %0, ptr %5, align 8
  store i32 %1, ptr %6, align 4
  store i32 %2, ptr %7, align 4
  store ptr null, ptr %12, align 8
  store ptr null, ptr %13, align 8
  %15 = load ptr, ptr %5, align 8
  %16 = call i32 @cli_bcapi_json_is_active(ptr noundef %15)
  %17 = icmp ne i32 %16, 0
  br i1 %17, label %19, label %18

18:                                               ; preds = %3
  store i32 -1, ptr %4, align 4
  br label %111

19:                                               ; preds = %3
  %20 = load ptr, ptr %5, align 8
  %21 = getelementptr inbounds %struct.cli_bc_ctx, ptr %20, i32 0, i32 70
  %22 = load i32, ptr %21, align 8
  %23 = icmp eq i32 %22, 0
  br i1 %23, label %24, label %30

24:                                               ; preds = %19
  %25 = load ptr, ptr %5, align 8
  %26 = call i32 @cli_bcapi_json_objs_init(ptr noundef %25)
  %27 = icmp ne i32 %26, 0
  br i1 %27, label %28, label %29

28:                                               ; preds = %24
  store i32 -1, ptr %4, align 4
  br label %111

29:                                               ; preds = %24
  br label %30

30:                                               ; preds = %29, %19
  %31 = load ptr, ptr %5, align 8
  %32 = getelementptr inbounds %struct.cli_bc_ctx, ptr %31, i32 0, i32 69
  %33 = load ptr, ptr %32, align 8
  store ptr %33, ptr %14, align 8
  %34 = load i32, ptr %7, align 4
  %35 = icmp slt i32 %34, 0
  br i1 %35, label %42, label %36

36:                                               ; preds = %30
  %37 = load i32, ptr %7, align 4
  %38 = load ptr, ptr %5, align 8
  %39 = getelementptr inbounds %struct.cli_bc_ctx, ptr %38, i32 0, i32 70
  %40 = load i32, ptr %39, align 8
  %41 = icmp uge i32 %37, %40
  br i1 %41, label %42, label %43

42:                                               ; preds = %36, %30
  call void (ptr, ...) @cli_dbgmsg(ptr noundef @.str.128)
  store i32 -1, ptr %4, align 4
  br label %111

43:                                               ; preds = %36
  %44 = load ptr, ptr %14, align 8
  %45 = load i32, ptr %7, align 4
  %46 = sext i32 %45 to i64
  %47 = getelementptr inbounds ptr, ptr %44, i64 %46
  %48 = load ptr, ptr %47, align 8
  store ptr %48, ptr %12, align 8
  %49 = load ptr, ptr %12, align 8
  %50 = icmp ne ptr %49, null
  br i1 %50, label %52, label %51

51:                                               ; preds = %43
  store i32 -1, ptr %4, align 4
  br label %111

52:                                               ; preds = %43
  %53 = load ptr, ptr %12, align 8
  %54 = call i32 @json_object_get_type(ptr noundef %53)
  store i32 %54, ptr %8, align 4
  %55 = load i32, ptr %8, align 4
  %56 = icmp ne i32 %55, 5
  br i1 %56, label %57, label %58

57:                                               ; preds = %52
  store i32 -2, ptr %4, align 4
  br label %111

58:                                               ; preds = %52
  %59 = load ptr, ptr %12, align 8
  %60 = call i64 @json_object_array_length(ptr noundef %59)
  %61 = trunc i64 %60 to i32
  store i32 %61, ptr %10, align 4
  %62 = load i32, ptr %6, align 4
  %63 = icmp sge i32 %62, 0
  br i1 %63, label %64, label %110

64:                                               ; preds = %58
  %65 = load i32, ptr %6, align 4
  %66 = load i32, ptr %10, align 4
  %67 = icmp slt i32 %65, %66
  br i1 %67, label %68, label %110

68:                                               ; preds = %64
  %69 = load ptr, ptr %5, align 8
  %70 = getelementptr inbounds %struct.cli_bc_ctx, ptr %69, i32 0, i32 70
  %71 = load i32, ptr %70, align 8
  %72 = add i32 %71, 1
  store i32 %72, ptr %9, align 4
  %73 = load ptr, ptr %12, align 8
  %74 = load i32, ptr %6, align 4
  %75 = sext i32 %74 to i64
  %76 = call ptr @json_object_array_get_idx(ptr noundef %73, i64 noundef %75)
  store ptr %76, ptr %13, align 8
  %77 = load ptr, ptr %13, align 8
  %78 = icmp ne ptr %77, null
  br i1 %78, label %80, label %79

79:                                               ; preds = %68
  store i32 0, ptr %4, align 4
  br label %111

80:                                               ; preds = %68
  %81 = load ptr, ptr %14, align 8
  %82 = load i32, ptr %9, align 4
  %83 = zext i32 %82 to i64
  %84 = mul i64 8, %83
  %85 = call ptr @cli_max_realloc(ptr noundef %81, i64 noundef %84)
  store ptr %85, ptr %11, align 8
  %86 = load ptr, ptr %11, align 8
  %87 = icmp ne ptr %86, null
  br i1 %87, label %92, label %88

88:                                               ; preds = %80
  %89 = load ptr, ptr %5, align 8
  %90 = getelementptr inbounds %struct.cli_bc_ctx, ptr %89, i32 0, i32 66
  %91 = load ptr, ptr %90, align 8
  call void @cli_event_error_oom(ptr noundef %91, i32 noundef 0)
  store i32 -1, ptr %4, align 4
  br label %111

92:                                               ; preds = %80
  %93 = load ptr, ptr %11, align 8
  %94 = load ptr, ptr %5, align 8
  %95 = getelementptr inbounds %struct.cli_bc_ctx, ptr %94, i32 0, i32 69
  store ptr %93, ptr %95, align 8
  %96 = load i32, ptr %9, align 4
  %97 = load ptr, ptr %5, align 8
  %98 = getelementptr inbounds %struct.cli_bc_ctx, ptr %97, i32 0, i32 70
  store i32 %96, ptr %98, align 8
  %99 = load ptr, ptr %13, align 8
  %100 = load ptr, ptr %11, align 8
  %101 = load i32, ptr %9, align 4
  %102 = sub i32 %101, 1
  %103 = zext i32 %102 to i64
  %104 = getelementptr inbounds ptr, ptr %100, i64 %103
  store ptr %99, ptr %104, align 8
  %105 = load i32, ptr %6, align 4
  %106 = load i32, ptr %9, align 4
  %107 = sub i32 %106, 1
  call void (ptr, ...) @cli_dbgmsg(ptr noundef @.str.129, i32 noundef %105, i32 noundef %107)
  %108 = load i32, ptr %9, align 4
  %109 = sub i32 %108, 1
  store i32 %109, ptr %4, align 4
  br label %111

110:                                              ; preds = %64, %58
  store i32 0, ptr %4, align 4
  br label %111

111:                                              ; preds = %110, %92, %88, %79, %57, %51, %42, %28, %18
  %112 = load i32, ptr %4, align 4
  ret i32 %112
}