; Function Attrs: nounwind uwtable
define i32 @cli_bcapi_json_get_array_idx(ptr nocapture noundef %0, i32 noundef %1, i32 noundef %2) local_unnamed_addr #1 {
  %4 = getelementptr inbounds i8, ptr %0, i64 1088
  %5 = load ptr, ptr %4, align 8
  %6 = getelementptr inbounds i8, ptr %5, i64 152
  %7 = load ptr, ptr %6, align 8
  %.not.i.not = icmp eq ptr %7, null
  br i1 %.not.i.not, label %52, label %8

8:                                                ; preds = %3
  %9 = getelementptr inbounds i8, ptr %0, i64 1336
  %10 = load i32, ptr %9, align 8
  %11 = icmp eq i32 %10, 0
  br i1 %11, label %12, label %19

12:                                               ; preds = %8
  %13 = getelementptr inbounds i8, ptr %0, i64 1328
  %14 = load ptr, ptr %13, align 8
  %15 = tail call ptr @cli_max_realloc(ptr noundef %14, i64 noundef 8) #29
  %.not.i46 = icmp eq ptr %15, null
  br i1 %.not.i46, label %cli_bcapi_json_objs_init.exit, label %cli_bcapi_json_objs_init.exit.thread

cli_bcapi_json_objs_init.exit.thread:             ; preds = %12
  store ptr %15, ptr %13, align 8
  store i32 1, ptr %9, align 8
  %16 = load ptr, ptr %6, align 8
  store ptr %16, ptr %15, align 8
  br label %19

cli_bcapi_json_objs_init.exit:                    ; preds = %12
  %17 = getelementptr inbounds i8, ptr %0, i64 1312
  %18 = load ptr, ptr %17, align 8
  tail call void @cli_event_error_oom(ptr noundef %18, i32 noundef 0) #29
  br label %52

19:                                               ; preds = %cli_bcapi_json_objs_init.exit.thread, %8
  %20 = getelementptr inbounds i8, ptr %0, i64 1328
  %21 = load ptr, ptr %20, align 8
  %22 = icmp slt i32 %2, 0
  br i1 %22, label %25, label %23

23:                                               ; preds = %19
  %24 = load i32, ptr %9, align 8
  %.not40 = icmp ugt i32 %24, %2
  br i1 %.not40, label %26, label %25

25:                                               ; preds = %23, %19
  tail call void (ptr, ...) @cli_dbgmsg(ptr noundef nonnull @.str.128) #29
  br label %52

26:                                               ; preds = %23
  %27 = zext nneg i32 %2 to i64
  %28 = getelementptr inbounds ptr, ptr %21, i64 %27
  %29 = load ptr, ptr %28, align 8
  %.not41 = icmp eq ptr %29, null
  br i1 %.not41, label %52, label %30

30:                                               ; preds = %26
  %31 = tail call i32 @json_object_get_type(ptr noundef nonnull %29) #29
  %.not42 = icmp eq i32 %31, 5
  br i1 %.not42, label %32, label %52

32:                                               ; preds = %30
  %33 = tail call i64 @json_object_array_length(ptr noundef nonnull %29) #29
  %34 = icmp sgt i32 %1, -1
  %35 = trunc i64 %33 to i32
  %36 = icmp sgt i32 %35, %1
  %or.cond = select i1 %34, i1 %36, i1 false
  br i1 %or.cond, label %37, label %52

37:                                               ; preds = %32
  %38 = load i32, ptr %9, align 8
  %39 = add i32 %38, 1
  %40 = zext nneg i32 %1 to i64
  %41 = tail call ptr @json_object_array_get_idx(ptr noundef nonnull %29, i64 noundef %40) #29
  %.not43 = icmp eq ptr %41, null
  br i1 %.not43, label %52, label %42

42:                                               ; preds = %37
  %43 = zext i32 %39 to i64
  %44 = shl nuw nsw i64 %43, 3
  %45 = tail call ptr @cli_max_realloc(ptr noundef nonnull %21, i64 noundef %44) #29
  %.not44 = icmp eq ptr %45, null
  br i1 %.not44, label %46, label %49

46:                                               ; preds = %42
  %47 = getelementptr inbounds i8, ptr %0, i64 1312
  %48 = load ptr, ptr %47, align 8
  tail call void @cli_event_error_oom(ptr noundef %48, i32 noundef 0) #29
  br label %52

49:                                               ; preds = %42
  store ptr %45, ptr %20, align 8
  store i32 %39, ptr %9, align 8
  %50 = zext i32 %38 to i64
  %51 = getelementptr inbounds ptr, ptr %45, i64 %50
  store ptr %41, ptr %51, align 8
  tail call void (ptr, ...) @cli_dbgmsg(ptr noundef nonnull @.str.129, i32 noundef %1, i32 noundef %38) #29
  br label %52

52:                                               ; preds = %cli_bcapi_json_objs_init.exit, %32, %37, %30, %26, %3, %49, %46, %25
  %.0 = phi i32 [ -1, %25 ], [ %38, %49 ], [ -1, %46 ], [ -1, %3 ], [ -1, %cli_bcapi_json_objs_init.exit ], [ -1, %26 ], [ -2, %30 ], [ 0, %37 ], [ 0, %32 ]
  ret i32 %.0
}